; Function Attrs: mustprogress uwtable
define hidden void @_ZN4cvc58internal6theory2bv24BVSolverBitblastInternal7explainENS0_12NodeTemplateILb0EEE(ptr noalias sret(%"class.cvc5::internal::TrustNode") align 8 %agg.result, ptr nocapture noundef nonnull readonly align 8 dereferenceable(56) %this, ptr nocapture noundef readonly %n) unnamed_addr #3 align 2 personality ptr @__gxx_personality_v0 {
cond.end:
  %agg.tmp = alloca %"class.cvc5::internal::NodeTemplate", align 8
  %d_im = getelementptr inbounds i8, ptr %this, i64 24
  %0 = load ptr, ptr %d_im, align 8
  %1 = load ptr, ptr %n, align 8
  store ptr %1, ptr %agg.tmp, align 8
  %vtable = load ptr, ptr %0, align 8
  %vfn = getelementptr inbounds i8, ptr %vtable, i64 24
  %2 = load ptr, ptr %vfn, align 8
  call void %2(ptr sret(%"class.cvc5::internal::TrustNode") align 8 %agg.result, ptr noundef nonnull align 8 dereferenceable(256) %0, ptr noundef nonnull %agg.tmp)
  ret void
}